; Function Attrs: inlinehint mustprogress nounwind optsize uwtable
define internal void @_ZZL28nanobind_init_test_issue_extRN8nanobind7module_EEN5ModelD2Ev(ptr noundef nonnull align 8 dereferenceable(64) initializes((0, 8)) %0) unnamed_addr #11 align 2 personality ptr @__gxx_personality_v0 {
  store ptr getelementptr inbounds nuw inrange(-16, 16) (i8, ptr @_ZTVZL28nanobind_init_test_issue_extRN8nanobind7module_EE5Model, i64 16), ptr %0, align 8, !tbaa !87
  %2 = getelementptr inbounds nuw i8, ptr %0, i64 8
  tail call fastcc void @_ZNSt10_HashtableINSt7__cxx1112basic_stringIcSt11char_traitsIcESaIcEEESt4pairIKS5_St10shared_ptrIZL28nanobind_init_test_issue_extRN8nanobind7module_EE5ParamEESaISE_ENSt8__detail10_Select1stESt8equal_toIS5_ESt4hashIS5_ENSG_18_Mod_range_hashingENSG_20_Default_ranged_hashENSG_20_Prime_rehash_policyENSG_17_Hashtable_traitsILb1ELb0ELb1EEEE5clearEv(ptr noundef nonnull align 8 dereferenceable(56) %2) #28
  %3 = load ptr, ptr %2, align 8, !tbaa !78
  %4 = getelementptr inbounds nuw i8, ptr %0, i64 56
  %5 = icmp eq ptr %3, %4
  br i1 %5, label %_ZNSt13unordered_mapINSt7__cxx1112basic_stringIcSt11char_traitsIcESaIcEEESt10shared_ptrIZL28nanobind_init_test_issue_extRN8nanobind7module_EE5ParamESt4hashIS5_ESt8equal_toIS5_ESaISt4pairIKS5_SB_EEED2Ev.exit, label %6

6:                                                ; preds = %1
  %7 = getelementptr inbounds nuw i8, ptr %0, i64 16
  %8 = load i64, ptr %7, align 8, !tbaa !77
  %9 = shl i64 %8, 3
  tail call void @_ZdlPvm(ptr noundef %3, i64 noundef %9) #30
  br label %_ZNSt13unordered_mapINSt7__cxx1112basic_stringIcSt11char_traitsIcESaIcEEESt10shared_ptrIZL28nanobind_init_test_issue_extRN8nanobind7module_EE5ParamESt4hashIS5_ESt8equal_toIS5_ESaISt4pairIKS5_SB_EEED2Ev.exit

_ZNSt13unordered_mapINSt7__cxx1112basic_stringIcSt11char_traitsIcESaIcEEESt10shared_ptrIZL28nanobind_init_test_issue_extRN8nanobind7module_EE5ParamESt4hashIS5_ESt8equal_toIS5_ESaISt4pairIKS5_SB_EEED2Ev.exit: ; preds = %1, %6
  ret void
}